target datalayout = "e-m:e-p270:32:32-p271:32:32-p272:64:64-i64:64-i128:128-f80:128-n8:16:32:64-S128"
target triple = "x86_64-pc-linux-gnu"

%"struct.std::_Rb_tree_header" = type { %"struct.std::_Rb_tree_node_base", i64 }
%"struct.std::_Rb_tree_node_base" = type { i32, ptr, ptr, ptr }
%"struct.casadi::ConicMemory" = type { %"struct.casadi::FunctionMemory", %"struct.casadi::casadi_qp_data" }
%"struct.casadi::FunctionMemory" = type { %"struct.casadi::ProtoFunctionMemory" }
%"struct.casadi::ProtoFunctionMemory" = type { %"class.std::map.67", ptr }
%"class.std::map.67" = type { %"class.std::_Rb_tree.68" }
%"class.std::_Rb_tree.68" = type { %"struct.std::_Rb_tree<std::__cxx11::basic_string<char>, std::pair<const std::__cxx11::basic_string<char>, casadi::FStats>, std::_Select1st<std::pair<const std::__cxx11::basic_string<char>, casadi::FStats>>, std::less<std::__cxx11::basic_string<char>>>::_Rb_tree_impl" }
%"struct.std::_Rb_tree<std::__cxx11::basic_string<char>, std::pair<const std::__cxx11::basic_string<char>, casadi::FStats>, std::_Select1st<std::pair<const std::__cxx11::basic_string<char>, casadi::FStats>>, std::less<std::__cxx11::basic_string<char>>>::_Rb_tree_impl" = type { [8 x i8], %"struct.std::_Rb_tree_header" }
%"struct.casadi::casadi_qp_data" = type { ptr, i32, i8, i64, ptr, ptr, ptr, ptr, ptr, ptr, ptr, ptr, ptr, ptr, ptr, ptr, ptr, ptr }

; Function Attrs: mustprogress nounwind uwtable
define void @_ZNK6casadi5Conic8set_workEPvRPPKdRPPdRPxRS6_(ptr noundef nonnull align 8 dereferenceable(1520) %0, ptr noundef %1, ptr noundef nonnull align 8 dereferenceable(8) %2, ptr noundef nonnull align 8 dereferenceable(8) %3, ptr noundef nonnull align 8 dereferenceable(8) %4, ptr noundef nonnull align 8 dereferenceable(8) %5) unnamed_addr #5 align 2 {
  %7 = alloca ptr, align 8
  %8 = alloca ptr, align 8
  %9 = alloca ptr, align 8
  %10 = alloca ptr, align 8
  %11 = alloca ptr, align 8
  %12 = alloca ptr, align 8
  %13 = alloca ptr, align 8
  %14 = alloca ptr, align 8
  store ptr %0, ptr %7, align 8, !tbaa !53
  store ptr %1, ptr %8, align 8, !tbaa !31
  store ptr %2, ptr %9, align 8, !tbaa !217
  store ptr %3, ptr %10, align 8, !tbaa !217
  store ptr %4, ptr %11, align 8, !tbaa !219
  store ptr %5, ptr %12, align 8, !tbaa !221
  call void @llvm.lifetime.start.p0(i64 8, ptr %13) #3
  %15 = load ptr, ptr %8, align 8, !tbaa !31
  store ptr %15, ptr %13, align 8, !tbaa !223
  call void @llvm.lifetime.start.p0(i64 8, ptr %14) #3
  %16 = load ptr, ptr %13, align 8, !tbaa !223
  %17 = getelementptr inbounds nuw %"struct.casadi::ConicMemory", ptr %16, i32 0, i32 1
  store ptr %17, ptr %14, align 8, !tbaa !225
  %18 = load ptr, ptr %9, align 8, !tbaa !217
  %19 = load ptr, ptr %18, align 8, !tbaa !221
  %20 = getelementptr inbounds nuw ptr, ptr %19, i64 0
  %21 = load ptr, ptr %20, align 8, !tbaa !227
  %22 = load ptr, ptr %14, align 8, !tbaa !225
  %23 = getelementptr inbounds nuw %"struct.casadi::casadi_qp_data", ptr %22, i32 0, i32 5
  store ptr %21, ptr %23, align 8, !tbaa !229
  %24 = load ptr, ptr %9, align 8, !tbaa !217
  %25 = load ptr, ptr %24, align 8, !tbaa !221
  %26 = getelementptr inbounds nuw ptr, ptr %25, i64 1
  %27 = load ptr, ptr %26, align 8, !tbaa !227
  %28 = load ptr, ptr %14, align 8, !tbaa !225
  %29 = getelementptr inbounds nuw %"struct.casadi::casadi_qp_data", ptr %28, i32 0, i32 6
  store ptr %27, ptr %29, align 8, !tbaa !233
  %30 = load ptr, ptr %9, align 8, !tbaa !217
  %31 = load ptr, ptr %30, align 8, !tbaa !221
  %32 = getelementptr inbounds nuw ptr, ptr %31, i64 2
  %33 = load ptr, ptr %32, align 8, !tbaa !227
  %34 = load ptr, ptr %14, align 8, !tbaa !225
  %35 = getelementptr inbounds nuw %"struct.casadi::casadi_qp_data", ptr %34, i32 0, i32 4
  store ptr %33, ptr %35, align 8, !tbaa !234
  %36 = load ptr, ptr %9, align 8, !tbaa !217
  %37 = load ptr, ptr %36, align 8, !tbaa !221
  %38 = getelementptr inbounds nuw ptr, ptr %37, i64 5
  %39 = load ptr, ptr %38, align 8, !tbaa !227
  %40 = load ptr, ptr %14, align 8, !tbaa !225
  %41 = getelementptr inbounds nuw %"struct.casadi::casadi_qp_data", ptr %40, i32 0, i32 7
  store ptr %39, ptr %41, align 8, !tbaa !235
  %42 = load ptr, ptr %9, align 8, !tbaa !217
  %43 = load ptr, ptr %42, align 8, !tbaa !221
  %44 = getelementptr inbounds nuw ptr, ptr %43, i64 6
  %45 = load ptr, ptr %44, align 8, !tbaa !227
  %46 = load ptr, ptr %14, align 8, !tbaa !225
  %47 = getelementptr inbounds nuw %"struct.casadi::casadi_qp_data", ptr %46, i32 0, i32 8
  store ptr %45, ptr %47, align 8, !tbaa !236
  %48 = load ptr, ptr %9, align 8, !tbaa !217
  %49 = load ptr, ptr %48, align 8, !tbaa !221
  %50 = getelementptr inbounds nuw ptr, ptr %49, i64 4
  %51 = load ptr, ptr %50, align 8, !tbaa !227
  %52 = load ptr, ptr %14, align 8, !tbaa !225
  %53 = getelementptr inbounds nuw %"struct.casadi::casadi_qp_data", ptr %52, i32 0, i32 10
  store ptr %51, ptr %53, align 8, !tbaa !237
  %54 = load ptr, ptr %9, align 8, !tbaa !217
  %55 = load ptr, ptr %54, align 8, !tbaa !221
  %56 = getelementptr inbounds nuw ptr, ptr %55, i64 3
  %57 = load ptr, ptr %56, align 8, !tbaa !227
  %58 = load ptr, ptr %14, align 8, !tbaa !225
  %59 = getelementptr inbounds nuw %"struct.casadi::casadi_qp_data", ptr %58, i32 0, i32 9
  store ptr %57, ptr %59, align 8, !tbaa !238
  %60 = load ptr, ptr %9, align 8, !tbaa !217
  %61 = load ptr, ptr %60, align 8, !tbaa !221
  %62 = getelementptr inbounds nuw ptr, ptr %61, i64 7
  %63 = load ptr, ptr %62, align 8, !tbaa !227
  %64 = load ptr, ptr %14, align 8, !tbaa !225
  %65 = getelementptr inbounds nuw %"struct.casadi::casadi_qp_data", ptr %64, i32 0, i32 11
  store ptr %63, ptr %65, align 8, !tbaa !239
  %66 = load ptr, ptr %9, align 8, !tbaa !217
  %67 = load ptr, ptr %66, align 8, !tbaa !221
  %68 = getelementptr inbounds nuw ptr, ptr %67, i64 8
  %69 = load ptr, ptr %68, align 8, !tbaa !227
  %70 = load ptr, ptr %14, align 8, !tbaa !225
  %71 = getelementptr inbounds nuw %"struct.casadi::casadi_qp_data", ptr %70, i32 0, i32 12
  store ptr %69, ptr %71, align 8, !tbaa !240
  %72 = load ptr, ptr %9, align 8, !tbaa !217
  %73 = load ptr, ptr %72, align 8, !tbaa !221
  %74 = getelementptr inbounds nuw ptr, ptr %73, i64 9
  %75 = load ptr, ptr %74, align 8, !tbaa !227
  %76 = load ptr, ptr %14, align 8, !tbaa !225
  %77 = getelementptr inbounds nuw %"struct.casadi::casadi_qp_data", ptr %76, i32 0, i32 13
  store ptr %75, ptr %77, align 8, !tbaa !241
  %78 = load ptr, ptr %10, align 8, !tbaa !217
  %79 = load ptr, ptr %78, align 8, !tbaa !221
  %80 = getelementptr inbounds nuw ptr, ptr %79, i64 0
  %81 = load ptr, ptr %80, align 8, !tbaa !227
  %82 = load ptr, ptr %14, align 8, !tbaa !225
  %83 = getelementptr inbounds nuw %"struct.casadi::casadi_qp_data", ptr %82, i32 0, i32 15
  store ptr %81, ptr %83, align 8, !tbaa !242
  %84 = load ptr, ptr %10, align 8, !tbaa !217
  %85 = load ptr, ptr %84, align 8, !tbaa !221
  %86 = getelementptr inbounds nuw ptr, ptr %85, i64 3
  %87 = load ptr, ptr %86, align 8, !tbaa !227
  %88 = load ptr, ptr %14, align 8, !tbaa !225
  %89 = getelementptr inbounds nuw %"struct.casadi::casadi_qp_data", ptr %88, i32 0, i32 16
  store ptr %87, ptr %89, align 8, !tbaa !243
  %90 = load ptr, ptr %10, align 8, !tbaa !217
  %91 = load ptr, ptr %90, align 8, !tbaa !221
  %92 = getelementptr inbounds nuw ptr, ptr %91, i64 2
  %93 = load ptr, ptr %92, align 8, !tbaa !227
  %94 = load ptr, ptr %14, align 8, !tbaa !225
  %95 = getelementptr inbounds nuw %"struct.casadi::casadi_qp_data", ptr %94, i32 0, i32 17
  store ptr %93, ptr %95, align 8, !tbaa !244
  %96 = load ptr, ptr %10, align 8, !tbaa !217
  %97 = load ptr, ptr %96, align 8, !tbaa !221
  %98 = getelementptr inbounds nuw ptr, ptr %97, i64 1
  %99 = load ptr, ptr %98, align 8, !tbaa !227
  %100 = load ptr, ptr %14, align 8, !tbaa !225
  %101 = getelementptr inbounds nuw %"struct.casadi::casadi_qp_data", ptr %100, i32 0, i32 14
  store ptr %99, ptr %101, align 8, !tbaa !245
  %102 = load ptr, ptr %14, align 8, !tbaa !225
  %103 = getelementptr inbounds nuw %"struct.casadi::casadi_qp_data", ptr %102, i32 0, i32 2
  store i8 0, ptr %103, align 4, !tbaa !246
  %104 = load ptr, ptr %14, align 8, !tbaa !225
  %105 = getelementptr inbounds nuw %"struct.casadi::casadi_qp_data", ptr %104, i32 0, i32 1
  store i32 1, ptr %105, align 8, !tbaa !247
  %106 = load ptr, ptr %14, align 8, !tbaa !225
  %107 = getelementptr inbounds nuw %"struct.casadi::casadi_qp_data", ptr %106, i32 0, i32 3
  store i64 -1, ptr %107, align 8, !tbaa !248
  call void @llvm.lifetime.end.p0(i64 8, ptr %14) #3
  call void @llvm.lifetime.end.p0(i64 8, ptr %13) #3
  ret void
}