; Function Attrs: mustprogress nofree norecurse nosync nounwind willreturn memory(read, argmem: readwrite, inaccessiblemem: none) uwtable
define void @_ZNK6casadi5Conic8set_workEPvRPPKdRPPdRPxRS6_(ptr nonnull readnone align 8 captures(none) %0, ptr noundef writeonly captures(none) initializes((64, 69), (72, 192)) %1, ptr noundef nonnull readonly align 8 captures(none) dereferenceable(8) %2, ptr noundef nonnull readonly align 8 captures(none) dereferenceable(8) %3, ptr nonnull readnone align 8 captures(none) %4, ptr nonnull readnone align 8 captures(none) %5) unnamed_addr #13 align 2 {
  %7 = load ptr, ptr %2, align 8, !tbaa !344
  %8 = load ptr, ptr %7, align 8, !tbaa !346
  %9 = getelementptr inbounds nuw i8, ptr %1, i64 88
  store ptr %8, ptr %9, align 8, !tbaa !347
  %10 = getelementptr inbounds nuw i8, ptr %7, i64 8
  %11 = load ptr, ptr %10, align 8, !tbaa !346
  %12 = getelementptr inbounds nuw i8, ptr %1, i64 96
  store ptr %11, ptr %12, align 8, !tbaa !351
  %13 = getelementptr inbounds nuw i8, ptr %7, i64 16
  %14 = load ptr, ptr %13, align 8, !tbaa !346
  %15 = getelementptr inbounds nuw i8, ptr %1, i64 80
  store ptr %14, ptr %15, align 8, !tbaa !352
  %16 = getelementptr inbounds nuw i8, ptr %7, i64 40
  %17 = load ptr, ptr %16, align 8, !tbaa !346
  %18 = getelementptr inbounds nuw i8, ptr %1, i64 104
  store ptr %17, ptr %18, align 8, !tbaa !353
  %19 = getelementptr inbounds nuw i8, ptr %7, i64 48
  %20 = load ptr, ptr %19, align 8, !tbaa !346
  %21 = getelementptr inbounds nuw i8, ptr %1, i64 112
  store ptr %20, ptr %21, align 8, !tbaa !354
  %22 = getelementptr inbounds nuw i8, ptr %7, i64 32
  %23 = load ptr, ptr %22, align 8, !tbaa !346
  %24 = getelementptr inbounds nuw i8, ptr %1, i64 128
  store ptr %23, ptr %24, align 8, !tbaa !355
  %25 = getelementptr inbounds nuw i8, ptr %7, i64 24
  %26 = load ptr, ptr %25, align 8, !tbaa !346
  %27 = getelementptr inbounds nuw i8, ptr %1, i64 120
  store ptr %26, ptr %27, align 8, !tbaa !356
  %28 = getelementptr inbounds nuw i8, ptr %7, i64 56
  %29 = load ptr, ptr %28, align 8, !tbaa !346
  %30 = getelementptr inbounds nuw i8, ptr %1, i64 136
  store ptr %29, ptr %30, align 8, !tbaa !357
  %31 = getelementptr inbounds nuw i8, ptr %7, i64 64
  %32 = load ptr, ptr %31, align 8, !tbaa !346
  %33 = getelementptr inbounds nuw i8, ptr %1, i64 144
  store ptr %32, ptr %33, align 8, !tbaa !358
  %34 = getelementptr inbounds nuw i8, ptr %7, i64 72
  %35 = load ptr, ptr %34, align 8, !tbaa !346
  %36 = getelementptr inbounds nuw i8, ptr %1, i64 152
  store ptr %35, ptr %36, align 8, !tbaa !359
  %37 = load ptr, ptr %3, align 8, !tbaa !344
  %38 = load ptr, ptr %37, align 8, !tbaa !346
  %39 = getelementptr inbounds nuw i8, ptr %1, i64 168
  store ptr %38, ptr %39, align 8, !tbaa !360
  %40 = getelementptr inbounds nuw i8, ptr %37, i64 24
  %41 = load ptr, ptr %40, align 8, !tbaa !346
  %42 = getelementptr inbounds nuw i8, ptr %1, i64 176
  store ptr %41, ptr %42, align 8, !tbaa !361
  %43 = getelementptr inbounds nuw i8, ptr %37, i64 16
  %44 = load ptr, ptr %43, align 8, !tbaa !346
  %45 = getelementptr inbounds nuw i8, ptr %1, i64 184
  store ptr %44, ptr %45, align 8, !tbaa !362
  %46 = getelementptr inbounds nuw i8, ptr %37, i64 8
  %47 = load ptr, ptr %46, align 8, !tbaa !346
  %48 = getelementptr inbounds nuw i8, ptr %1, i64 160
  store ptr %47, ptr %48, align 8, !tbaa !363
  %49 = getelementptr inbounds nuw i8, ptr %1, i64 68
  store i8 0, ptr %49, align 4, !tbaa !364
  %50 = getelementptr inbounds nuw i8, ptr %1, i64 64
  store i32 1, ptr %50, align 8, !tbaa !365
  %51 = getelementptr inbounds nuw i8, ptr %1, i64 72
  store i64 -1, ptr %51, align 8, !tbaa !366
  ret void
}